; ModuleID = '4/455.c'
source_filename = "4/455.c"
target datalayout = "e-m:e-p270:32:32-p271:32:32-p272:64:64-i64:64-f80:128-n8:16:32:64-S128"
target triple = "x86_64-pc-linux-gnu"

@.str = private unnamed_addr constant [5 x i8] c"%d%d\00", align 1
@.str.1 = private unnamed_addr constant [3 x i8] c"%d\00", align 1
@.str.2 = private unnamed_addr constant [4 x i8] c"%d\0A\00", align 1

; Function Attrs: noinline nounwind uwtable
define dso_local i32 @main() #0 {
  %1 = alloca i32, align 4
  %2 = alloca [100 x [100 x i32]], align 16
  %3 = alloca i32, align 4
  %4 = alloca i32, align 4
  %5 = alloca i32, align 4
  %6 = alloca i32, align 4
  %7 = alloca i32, align 4
  store i32 0, i32* %1, align 4
  %8 = call i32 (i8*, ...) @__isoc99_scanf(i8* getelementptr inbounds ([5 x i8], [5 x i8]* @.str, i64 0, i64 0), i32* %3, i32* %4)
  store i32 0, i32* %5, align 4
  br label %9

9:                                                ; preds = %32, %0
  %10 = load i32, i32* %5, align 4
  %11 = load i32, i32* %3, align 4
  %12 = sub nsw i32 %11, 1
  %13 = icmp sle i32 %10, %12
  br i1 %13, label %14, label %35

14:                                               ; preds = %9
  store i32 0, i32* %6, align 4
  br label %15

15:                                               ; preds = %28, %14
  %16 = load i32, i32* %6, align 4
  %17 = load i32, i32* %4, align 4
  %18 = sub nsw i32 %17, 1
  %19 = icmp sle i32 %16, %18
  br i1 %19, label %20, label %31

20:                                               ; preds = %15
  %21 = load i32, i32* %5, align 4
  %22 = sext i32 %21 to i64
  %23 = getelementptr inbounds [100 x [100 x i32]], [100 x [100 x i32]]* %2, i64 0, i64 %22
  %24 = load i32, i32* %6, align 4
  %25 = sext i32 %24 to i64
  %26 = getelementptr inbounds [100 x i32], [100 x i32]* %23, i64 0, i64 %25
  %27 = call i32 (i8*, ...) @__isoc99_scanf(i8* getelementptr inbounds ([3 x i8], [3 x i8]* @.str.1, i64 0, i64 0), i32* %26)
  br label %28

28:                                               ; preds = %20
  %29 = load i32, i32* %6, align 4
  %30 = add nsw i32 %29, 1
  store i32 %30, i32* %6, align 4
  br label %15

31:                                               ; preds = %15
  br label %32

32:                                               ; preds = %31
  %33 = load i32, i32* %5, align 4
  %34 = add nsw i32 %33, 1
  store i32 %34, i32* %5, align 4
  br label %9

35:                                               ; preds = %9
  store i32 0, i32* %5, align 4
  store i32 0, i32* %6, align 4
  store i32 0, i32* %7, align 4
  br label %36

36:                                               ; preds = %95, %35
  %37 = load i32, i32* %7, align 4
  %38 = load i32, i32* %3, align 4
  %39 = load i32, i32* %4, align 4
  %40 = mul nsw i32 %38, %39
  %41 = sub nsw i32 %40, 1
  %42 = icmp sle i32 %37, %41
  br i1 %42, label %43, label %98

43:                                               ; preds = %36
  %44 = load i32, i32* %5, align 4
  %45 = sext i32 %44 to i64
  %46 = getelementptr inbounds [100 x [100 x i32]], [100 x [100 x i32]]* %2, i64 0, i64 %45
  %47 = load i32, i32* %6, align 4
  %48 = sext i32 %47 to i64
  %49 = getelementptr inbounds [100 x i32], [100 x i32]* %46, i64 0, i64 %48
  %50 = load i32, i32* %49, align 4
  %51 = call i32 (i8*, ...) @printf(i8* getelementptr inbounds ([4 x i8], [4 x i8]* @.str.2, i64 0, i64 0), i32 %50)
  %52 = load i32, i32* %5, align 4
  %53 = add nsw i32 %52, 1
  store i32 %53, i32* %5, align 4
  %54 = load i32, i32* %6, align 4
  %55 = add nsw i32 %54, -1
  store i32 %55, i32* %6, align 4
  %56 = load i32, i32* %5, align 4
  %57 = load i32, i32* %3, align 4
  %58 = sub nsw i32 %57, 1
  %59 = icmp sgt i32 %56, %58
  br i1 %59, label %63, label %60

60:                                               ; preds = %43
  %61 = load i32, i32* %6, align 4
  %62 = icmp slt i32 %61, 0
  br i1 %62, label %63, label %94

63:                                               ; preds = %60, %43
  br label %64

64:                                               ; preds = %74, %63
  %65 = load i32, i32* %5, align 4
  %66 = icmp sgt i32 %65, 0
  br i1 %66, label %67, label %72

67:                                               ; preds = %64
  %68 = load i32, i32* %6, align 4
  %69 = load i32, i32* %4, align 4
  %70 = sub nsw i32 %69, 1
  %71 = icmp slt i32 %68, %70
  br label %72

72:                                               ; preds = %67, %64
  %73 = phi i1 [ false, %64 ], [ %71, %67 ]
  br i1 %73, label %74, label %79

74:                                               ; preds = %72
  %75 = load i32, i32* %5, align 4
  %76 = add nsw i32 %75, -1
  store i32 %76, i32* %5, align 4
  %77 = load i32, i32* %6, align 4
  %78 = add nsw i32 %77, 1
  store i32 %78, i32* %6, align 4
  br label %64

79:                                               ; preds = %72
  %80 = load i32, i32* %5, align 4
  %81 = icmp eq i32 %80, 0
  br i1 %81, label %82, label %90

82:                                               ; preds = %79
  %83 = load i32, i32* %6, align 4
  %84 = load i32, i32* %4, align 4
  %85 = sub nsw i32 %84, 1
  %86 = icmp slt i32 %83, %85
  br i1 %86, label %87, label %90

87:                                               ; preds = %82
  %88 = load i32, i32* %6, align 4
  %89 = add nsw i32 %88, 1
  store i32 %89, i32* %6, align 4
  br label %93

90:                                               ; preds = %82, %79
  %91 = load i32, i32* %5, align 4
  %92 = add nsw i32 %91, 1
  store i32 %92, i32* %5, align 4
  br label %93

93:                                               ; preds = %90, %87
  br label %94

94:                                               ; preds = %93, %60
  br label %95

95:                                               ; preds = %94
  %96 = load i32, i32* %7, align 4
  %97 = add nsw i32 %96, 1
  store i32 %97, i32* %7, align 4
  br label %36

98:                                               ; preds = %36
  ret i32 0
}

declare dso_local i32 @__isoc99_scanf(i8*, ...) #1

declare dso_local i32 @printf(i8*, ...) #1


!llvm.module.flags = !{!0}
!llvm.ident = !{!1}

!0 = !{i32 1, !"wchar_size", i32 4}
!1 = !{!"clang version 10.0.0-4ubuntu1 "}
