; ModuleID = 'source-C-CXX/3/455.c'
source_filename = "source-C-CXX/3/455.c"
target datalayout = "e-m:e-p270:32:32-p271:32:32-p272:64:64-i64:64-f80:128-n8:16:32:64-S128"
target triple = "x86_64-pc-linux-gnu"

@.str = private unnamed_addr constant [5 x i8] c"%d%d\00", align 1
@.str.1 = private unnamed_addr constant [3 x i8] c"%d\00", align 1
@.str.2 = private unnamed_addr constant [4 x i8] c"%d\0A\00", align 1

; Function Attrs: nofree nounwind sspstrong uwtable
define dso_local i32 @main() local_unnamed_addr #0 {
  %1 = alloca [100 x [100 x i32]], align 16
  %2 = alloca i32, align 4
  %3 = alloca i32, align 4
  %4 = bitcast [100 x [100 x i32]]* %1 to i8*
  call void @llvm.lifetime.start.p0i8(i64 40000, i8* nonnull %4) #3
  %5 = bitcast i32* %2 to i8*
  call void @llvm.lifetime.start.p0i8(i64 4, i8* nonnull %5) #3
  %6 = bitcast i32* %3 to i8*
  call void @llvm.lifetime.start.p0i8(i64 4, i8* nonnull %6) #3
  %7 = call i32 (i8*, ...) @__isoc99_scanf(i8* getelementptr inbounds ([5 x i8], [5 x i8]* @.str, i64 0, i64 0), i32* nonnull %2, i32* nonnull %3)
  %8 = load i32, i32* %2, align 4, !tbaa !5
  %9 = icmp sgt i32 %8, 0
  %10 = load i32, i32* %3, align 4, !tbaa !5
  %11 = icmp sgt i32 %10, 0
  %12 = select i1 %9, i1 %11, i1 false
  br i1 %12, label %13, label %18

13:                                               ; preds = %0, %33
  %14 = phi i32 [ %34, %33 ], [ %8, %0 ]
  %15 = phi i32 [ %35, %33 ], [ %10, %0 ]
  %16 = phi i64 [ %36, %33 ], [ 0, %0 ]
  %17 = icmp sgt i32 %15, 0
  br i1 %17, label %23, label %33

18:                                               ; preds = %33, %0
  %19 = phi i32 [ %10, %0 ], [ %35, %33 ]
  %20 = phi i32 [ %8, %0 ], [ %34, %33 ]
  %21 = mul nsw i32 %19, %20
  %22 = icmp sgt i32 %21, 0
  br i1 %22, label %39, label %86

23:                                               ; preds = %13, %23
  %24 = phi i64 [ %27, %23 ], [ 0, %13 ]
  %25 = getelementptr inbounds [100 x [100 x i32]], [100 x [100 x i32]]* %1, i64 0, i64 %16, i64 %24
  %26 = call i32 (i8*, ...) @__isoc99_scanf(i8* getelementptr inbounds ([3 x i8], [3 x i8]* @.str.1, i64 0, i64 0), i32* nonnull %25)
  %27 = add nuw nsw i64 %24, 1
  %28 = load i32, i32* %3, align 4, !tbaa !5
  %29 = sext i32 %28 to i64
  %30 = icmp slt i64 %27, %29
  br i1 %30, label %23, label %31, !llvm.loop !9

31:                                               ; preds = %23
  %32 = load i32, i32* %2, align 4, !tbaa !5
  br label %33

33:                                               ; preds = %31, %13
  %34 = phi i32 [ %32, %31 ], [ %14, %13 ]
  %35 = phi i32 [ %28, %31 ], [ %15, %13 ]
  %36 = add nuw nsw i64 %16, 1
  %37 = sext i32 %34 to i64
  %38 = icmp slt i64 %36, %37
  br i1 %38, label %13, label %18, !llvm.loop !11

39:                                               ; preds = %18, %80
  %40 = phi i32 [ %83, %80 ], [ 0, %18 ]
  %41 = phi i32 [ %82, %80 ], [ 0, %18 ]
  %42 = phi i32 [ %81, %80 ], [ 0, %18 ]
  %43 = sext i32 %42 to i64
  %44 = sext i32 %41 to i64
  %45 = getelementptr inbounds [100 x [100 x i32]], [100 x [100 x i32]]* %1, i64 0, i64 %43, i64 %44
  %46 = load i32, i32* %45, align 4, !tbaa !5
  %47 = call i32 (i8*, ...) @printf(i8* nonnull dereferenceable(1) getelementptr inbounds ([4 x i8], [4 x i8]* @.str.2, i64 0, i64 0), i32 %46)
  %48 = add nsw i32 %42, 1
  %49 = add nsw i32 %41, -1
  %50 = load i32, i32* %2, align 4, !tbaa !5
  %51 = add nsw i32 %50, -1
  %52 = icmp sge i32 %42, %51
  %53 = icmp slt i32 %41, 1
  %54 = select i1 %52, i1 true, i1 %53
  %55 = load i32, i32* %3, align 4
  br i1 %54, label %56, label %80

56:                                               ; preds = %39
  %57 = add nsw i32 %55, -1
  %58 = icmp sgt i32 %42, -1
  %59 = icmp slt i32 %41, %55
  %60 = select i1 %58, i1 %59, i1 false
  br i1 %60, label %61, label %69

61:                                               ; preds = %56, %61
  %62 = phi i32 [ %65, %61 ], [ %49, %56 ]
  %63 = phi i32 [ %64, %61 ], [ %48, %56 ]
  %64 = add nsw i32 %63, -1
  %65 = add nsw i32 %62, 1
  %66 = icmp sgt i32 %63, 1
  %67 = icmp slt i32 %65, %57
  %68 = select i1 %66, i1 %67, i1 false
  br i1 %68, label %61, label %69, !llvm.loop !13

69:                                               ; preds = %61, %56
  %70 = phi i32 [ %48, %56 ], [ %64, %61 ]
  %71 = phi i32 [ %49, %56 ], [ %65, %61 ]
  %72 = phi i1 [ %59, %56 ], [ %67, %61 ]
  %73 = icmp ne i32 %70, 0
  %74 = xor i1 %72, true
  %75 = select i1 %73, i1 true, i1 %74
  br i1 %75, label %78, label %76

76:                                               ; preds = %69
  %77 = add nsw i32 %71, 1
  br label %80

78:                                               ; preds = %69
  %79 = add nsw i32 %70, 1
  br label %80

80:                                               ; preds = %39, %78, %76
  %81 = phi i32 [ 0, %76 ], [ %79, %78 ], [ %48, %39 ]
  %82 = phi i32 [ %77, %76 ], [ %71, %78 ], [ %49, %39 ]
  %83 = add nuw nsw i32 %40, 1
  %84 = mul nsw i32 %55, %50
  %85 = icmp slt i32 %83, %84
  br i1 %85, label %39, label %86, !llvm.loop !14

86:                                               ; preds = %80, %18
  call void @llvm.lifetime.end.p0i8(i64 4, i8* nonnull %6) #3
  call void @llvm.lifetime.end.p0i8(i64 4, i8* nonnull %5) #3
  call void @llvm.lifetime.end.p0i8(i64 40000, i8* nonnull %4) #3
  ret i32 0
}

; Function Attrs: argmemonly mustprogress nofree nosync nounwind willreturn
declare void @llvm.lifetime.start.p0i8(i64 immarg, i8* nocapture) #1

; Function Attrs: nofree nounwind
declare noundef i32 @__isoc99_scanf(i8* nocapture noundef readonly, ...) local_unnamed_addr #2

; Function Attrs: nofree nounwind
declare noundef i32 @printf(i8* nocapture noundef readonly, ...) local_unnamed_addr #2

; Function Attrs: argmemonly mustprogress nofree nosync nounwind willreturn
declare void @llvm.lifetime.end.p0i8(i64 immarg, i8* nocapture) #1


!llvm.module.flags = !{!0, !1, !2, !3}
!llvm.ident = !{!4}

!0 = !{i32 1, !"wchar_size", i32 4}
!1 = !{i32 7, !"PIC Level", i32 2}
!2 = !{i32 7, !"PIE Level", i32 2}
!3 = !{i32 7, !"uwtable", i32 1}
!4 = !{!"clang version 13.0.0"}
!5 = !{!6, !6, i64 0}
!6 = !{!"int", !7, i64 0}
!7 = !{!"omnipotent char", !8, i64 0}
!8 = !{!"Simple C/C++ TBAA"}
!9 = distinct !{!9, !10}
!10 = !{!"llvm.loop.mustprogress"}
!11 = distinct !{!11, !10, !12}
!12 = !{!"llvm.loop.unswitch.partial.disable"}
!13 = distinct !{!13, !10}
!14 = distinct !{!14, !10}
